target datalayout = "e-m:e-p270:32:32-p271:32:32-p272:64:64-i64:64-i128:128-f80:128-n8:16:32:64-S128"
target triple = "x86_64-pc-linux-gnu"

%"class.llvm::SPIRVObjectWriter" = type <{ %"class.llvm::MCObjectWriter", %"struct.llvm::support::endian::Writer", %"class.std::unique_ptr", %"struct.llvm::SPIRVObjectWriter::VersionInfoType", [4 x i8] }>
%"class.llvm::MCObjectWriter" = type { ptr, %"class.llvm::SmallVector", %"class.std::__cxx11::basic_string", %"class.std::vector", i8, i8, %"class.llvm::SmallVector.3" }
%"class.llvm::SmallVector" = type { %"class.llvm::SmallVectorImpl" }
%"class.llvm::SmallVectorImpl" = type { %"class.llvm::SmallVectorTemplateBase" }
%"class.llvm::SmallVectorTemplateBase" = type { %"class.llvm::SmallVectorTemplateCommon" }
%"class.llvm::SmallVectorTemplateCommon" = type { %"class.llvm::SmallVectorBase" }
%"class.llvm::SmallVectorBase" = type { ptr, i32, i32 }
%"class.std::__cxx11::basic_string" = type { %"struct.std::__cxx11::basic_string<char>::_Alloc_hider", i64, %union.anon }
%"struct.std::__cxx11::basic_string<char>::_Alloc_hider" = type { ptr }
%union.anon = type { i64, [8 x i8] }
%"class.std::vector" = type { %"struct.std::_Vector_base" }
%"struct.std::_Vector_base" = type { %"struct.std::_Vector_base<const llvm::MCSymbol *, std::allocator<const llvm::MCSymbol *>>::_Vector_impl" }
%"struct.std::_Vector_base<const llvm::MCSymbol *, std::allocator<const llvm::MCSymbol *>>::_Vector_impl" = type { %"struct.std::_Vector_base<const llvm::MCSymbol *, std::allocator<const llvm::MCSymbol *>>::_Vector_impl_data" }
%"struct.std::_Vector_base<const llvm::MCSymbol *, std::allocator<const llvm::MCSymbol *>>::_Vector_impl_data" = type { ptr, ptr, ptr }
%"class.llvm::SmallVector.3" = type { %"class.llvm::SmallVectorImpl.4" }
%"class.llvm::SmallVectorImpl.4" = type { %"class.llvm::SmallVectorTemplateBase.5" }
%"class.llvm::SmallVectorTemplateBase.5" = type { %"class.llvm::SmallVectorTemplateCommon.6" }
%"class.llvm::SmallVectorTemplateCommon.6" = type { %"class.llvm::SmallVectorBase" }
%"struct.llvm::support::endian::Writer" = type <{ ptr, i32, [4 x i8] }>
%"class.std::unique_ptr" = type { %"struct.std::__uniq_ptr_data" }
%"struct.std::__uniq_ptr_data" = type { %"class.std::__uniq_ptr_impl" }
%"class.std::__uniq_ptr_impl" = type { %"class.std::tuple" }
%"class.std::tuple" = type { %"struct.std::_Tuple_impl" }
%"struct.std::_Tuple_impl" = type { %"struct.std::_Head_base.9" }
%"struct.std::_Head_base.9" = type { ptr }
%"struct.llvm::SPIRVObjectWriter::VersionInfoType" = type { i32, i32, i32 }

; Function Attrs: mustprogress nounwind uwtable
define linkonce_odr hidden noundef i32 @_ZN4llvm8byteswapIjvEET_S1_(i32 noundef %0) #0 comdat {
  %2 = alloca i32, align 4
  %3 = alloca i32, align 4
  store i32 %0, ptr %2, align 4
  %4 = load i32, ptr %2, align 4
  store i32 %4, ptr %3, align 4
  %5 = load i32, ptr %3, align 4
  %6 = call i32 @llvm.bswap.i32(i32 %5)
  ret i32 %6
}

; Function Attrs: mustprogress nounwind uwtable
define linkonce_odr hidden noundef i32 @_ZN4llvm3sys15getSwappedBytesEj(i32 noundef %0) #0 comdat {
  %2 = alloca i32, align 4
  store i32 %0, ptr %2, align 4
  %3 = load i32, ptr %2, align 4
  %4 = call noundef i32 @_ZN4llvm8byteswapIjvEET_S1_(i32 noundef %3) #7
  ret i32 %4
}

; Function Attrs: mustprogress nounwind uwtable
define linkonce_odr hidden void @_ZN4llvm3sys13swapByteOrderIjEEvRT_(ptr noundef nonnull align 4 dereferenceable(4) %0) #0 comdat {
  %2 = alloca ptr, align 8
  store ptr %0, ptr %2, align 8
  %3 = load ptr, ptr %2, align 8
  %4 = load i32, ptr %3, align 4
  %5 = call noundef i32 @_ZN4llvm3sys15getSwappedBytesEj(i32 noundef %4)
  %6 = load ptr, ptr %2, align 8
  store i32 %5, ptr %6, align 4
  ret void
}

; Function Attrs: mustprogress nounwind uwtable
define linkonce_odr hidden noundef i32 @_ZN4llvm7support6endian9byte_swapIjEET_S3_NS_10endiannessE(i32 noundef %0, i32 noundef %1) #0 comdat {
  %3 = alloca i32, align 4
  %4 = alloca i32, align 4
  store i32 %0, ptr %3, align 4
  store i32 %1, ptr %4, align 4
  %5 = load i32, ptr %4, align 4
  %6 = icmp ne i32 %5, 1
  br i1 %6, label %7, label %8

7:                                                ; preds = %2
  call void @_ZN4llvm3sys13swapByteOrderIjEEvRT_(ptr noundef nonnull align 4 dereferenceable(4) %3)
  br label %8

8:                                                ; preds = %7, %2
  %9 = load i32, ptr %3, align 4
  ret i32 %9
}

; Function Attrs: mustprogress nounwind uwtable
define linkonce_odr hidden void @_ZN4llvm7support6endian5writeIjEEvRNS_11raw_ostreamET_NS_10endiannessE(ptr noundef nonnull align 8 dereferenceable(48) %0, i32 noundef %1, i32 noundef %2) #0 comdat {
  %4 = alloca ptr, align 8
  %5 = alloca i32, align 4
  %6 = alloca i32, align 4
  store ptr %0, ptr %4, align 8
  store i32 %1, ptr %5, align 4
  store i32 %2, ptr %6, align 4
  %7 = load i32, ptr %5, align 4
  %8 = load i32, ptr %6, align 4
  %9 = call noundef i32 @_ZN4llvm7support6endian9byte_swapIjEET_S3_NS_10endiannessE(i32 noundef %7, i32 noundef %8)
  store i32 %9, ptr %5, align 4
  %10 = load ptr, ptr %4, align 8
  %11 = call noundef nonnull align 8 dereferenceable(48) ptr @_ZN4llvm11raw_ostream5writeEPKcm(ptr noundef nonnull align 8 dereferenceable(48) %10, ptr noundef %5, i64 noundef 4)
  ret void
}

; Function Attrs: mustprogress nounwind uwtable
define linkonce_odr hidden void @_ZN4llvm7support6endian6Writer5writeIjEEvT_(ptr noundef nonnull align 8 dereferenceable(12) %0, i32 noundef %1) #0 comdat align 2 {
  %3 = alloca ptr, align 8
  %4 = alloca i32, align 4
  store ptr %0, ptr %3, align 8
  store i32 %1, ptr %4, align 4
  %5 = load ptr, ptr %3, align 8
  %6 = getelementptr inbounds nuw %"struct.llvm::support::endian::Writer", ptr %5, i32 0, i32 0
  %7 = load ptr, ptr %6, align 8
  %8 = load i32, ptr %4, align 4
  %9 = getelementptr inbounds nuw %"struct.llvm::support::endian::Writer", ptr %5, i32 0, i32 1
  %10 = load i32, ptr %9, align 8
  call void @_ZN4llvm7support6endian5writeIjEEvRNS_11raw_ostreamET_NS_10endiannessE(ptr noundef nonnull align 8 dereferenceable(48) %7, i32 noundef %8, i32 noundef %10)
  ret void
}

; Function Attrs: mustprogress nounwind uwtable
define dso_local void @_ZN4llvm17SPIRVObjectWriter11writeHeaderERKNS_11MCAssemblerE(ptr noundef nonnull align 8 dereferenceable(144) %0, ptr noundef nonnull align 8 dereferenceable(372) %1) #0 align 2 {
  %3 = alloca ptr, align 8
  %4 = alloca ptr, align 8
  %5 = alloca i32, align 4
  %6 = alloca i32, align 4
  %7 = alloca i32, align 4
  %8 = alloca i32, align 4
  store ptr %0, ptr %3, align 8
  store ptr %1, ptr %4, align 8
  %9 = load ptr, ptr %3, align 8
  store i32 119734787, ptr %5, align 4
  store i32 43, ptr %6, align 4
  store i32 2818068, ptr %7, align 4
  store i32 0, ptr %8, align 4
  %10 = getelementptr inbounds nuw %"class.llvm::SPIRVObjectWriter", ptr %9, i32 0, i32 1
  call void @_ZN4llvm7support6endian6Writer5writeIjEEvT_(ptr noundef nonnull align 8 dereferenceable(12) %10, i32 noundef 119734787)
  %11 = getelementptr inbounds nuw %"class.llvm::SPIRVObjectWriter", ptr %9, i32 0, i32 1
  %12 = getelementptr inbounds nuw %"class.llvm::SPIRVObjectWriter", ptr %9, i32 0, i32 3
  %13 = getelementptr inbounds nuw %"struct.llvm::SPIRVObjectWriter::VersionInfoType", ptr %12, i32 0, i32 0
  %14 = load i32, ptr %13, align 8
  %15 = shl i32 %14, 16
  %16 = getelementptr inbounds nuw %"class.llvm::SPIRVObjectWriter", ptr %9, i32 0, i32 3
  %17 = getelementptr inbounds nuw %"struct.llvm::SPIRVObjectWriter::VersionInfoType", ptr %16, i32 0, i32 1
  %18 = load i32, ptr %17, align 4
  %19 = shl i32 %18, 8
  %20 = or i32 %15, %19
  call void @_ZN4llvm7support6endian6Writer5writeIjEEvT_(ptr noundef nonnull align 8 dereferenceable(12) %11, i32 noundef %20)
  %21 = getelementptr inbounds nuw %"class.llvm::SPIRVObjectWriter", ptr %9, i32 0, i32 1
  call void @_ZN4llvm7support6endian6Writer5writeIjEEvT_(ptr noundef nonnull align 8 dereferenceable(12) %21, i32 noundef 2818068)
  %22 = getelementptr inbounds nuw %"class.llvm::SPIRVObjectWriter", ptr %9, i32 0, i32 1
  %23 = getelementptr inbounds nuw %"class.llvm::SPIRVObjectWriter", ptr %9, i32 0, i32 3
  %24 = getelementptr inbounds nuw %"struct.llvm::SPIRVObjectWriter::VersionInfoType", ptr %23, i32 0, i32 2
  %25 = load i32, ptr %24, align 8
  call void @_ZN4llvm7support6endian6Writer5writeIjEEvT_(ptr noundef nonnull align 8 dereferenceable(12) %22, i32 noundef %25)
  %26 = getelementptr inbounds nuw %"class.llvm::SPIRVObjectWriter", ptr %9, i32 0, i32 1
  call void @_ZN4llvm7support6endian6Writer5writeIjEEvT_(ptr noundef nonnull align 8 dereferenceable(12) %26, i32 noundef 0)
  ret void
}