; Function Attrs: mustprogress nounwind uwtable
define dso_local void @_ZN4llvm17SPIRVObjectWriter11writeHeaderERKNS_11MCAssemblerE(ptr nocapture noundef nonnull readonly align 8 dereferenceable(144) %0, ptr nocapture noundef nonnull readnone align 8 dereferenceable(372) %1) local_unnamed_addr #0 align 2 {
  %3 = alloca i32, align 4
  %4 = alloca i32, align 4
  %5 = alloca i32, align 4
  %6 = alloca i32, align 4
  %7 = alloca i32, align 4
  %8 = getelementptr inbounds nuw i8, ptr %0, i64 104
  %9 = load ptr, ptr %8, align 8
  %10 = getelementptr inbounds i8, ptr %0, i64 112
  %11 = load i32, ptr %10, align 8
  call void @llvm.lifetime.start.p0(i64 4, ptr nonnull %7)
  %.not.i.i.i = icmp eq i32 %11, 1
  %spec.select.i.i.i = select i1 %.not.i.i.i, i32 119734787, i32 50471687
  store i32 %spec.select.i.i.i, ptr %7, align 4
  %12 = call noundef nonnull align 8 dereferenceable(48) ptr @_ZN4llvm11raw_ostream5writeEPKcm(ptr noundef nonnull align 8 dereferenceable(48) %9, ptr noundef nonnull %7, i64 noundef 4) #9
  call void @llvm.lifetime.end.p0(i64 4, ptr nonnull %7)
  %13 = getelementptr inbounds nuw i8, ptr %0, i64 128
  %14 = load i32, ptr %13, align 8
  %15 = shl i32 %14, 16
  %16 = getelementptr inbounds i8, ptr %0, i64 132
  %17 = load i32, ptr %16, align 4
  %18 = shl i32 %17, 8
  %19 = or i32 %18, %15
  %20 = load ptr, ptr %8, align 8
  %21 = load i32, ptr %10, align 8
  call void @llvm.lifetime.start.p0(i64 4, ptr nonnull %6)
  %.not.i.i.i1 = icmp eq i32 %21, 1
  %22 = call i32 @llvm.bswap.i32(i32 %19)
  %spec.select.i.i.i2 = select i1 %.not.i.i.i1, i32 %19, i32 %22
  store i32 %spec.select.i.i.i2, ptr %6, align 4
  %23 = call noundef nonnull align 8 dereferenceable(48) ptr @_ZN4llvm11raw_ostream5writeEPKcm(ptr noundef nonnull align 8 dereferenceable(48) %20, ptr noundef nonnull %6, i64 noundef 4) #9
  call void @llvm.lifetime.end.p0(i64 4, ptr nonnull %6)
  %24 = load ptr, ptr %8, align 8
  %25 = load i32, ptr %10, align 8
  call void @llvm.lifetime.start.p0(i64 4, ptr nonnull %5)
  %.not.i.i.i3 = icmp eq i32 %25, 1
  %spec.select.i.i.i4 = select i1 %.not.i.i.i3, i32 2818068, i32 335555328
  store i32 %spec.select.i.i.i4, ptr %5, align 4
  %26 = call noundef nonnull align 8 dereferenceable(48) ptr @_ZN4llvm11raw_ostream5writeEPKcm(ptr noundef nonnull align 8 dereferenceable(48) %24, ptr noundef nonnull %5, i64 noundef 4) #9
  call void @llvm.lifetime.end.p0(i64 4, ptr nonnull %5)
  %27 = getelementptr inbounds i8, ptr %0, i64 136
  %28 = load i32, ptr %27, align 8
  %29 = load ptr, ptr %8, align 8
  %30 = load i32, ptr %10, align 8
  call void @llvm.lifetime.start.p0(i64 4, ptr nonnull %4)
  %.not.i.i.i5 = icmp eq i32 %30, 1
  %31 = call i32 @llvm.bswap.i32(i32 %28)
  %spec.select.i.i.i6 = select i1 %.not.i.i.i5, i32 %28, i32 %31
  store i32 %spec.select.i.i.i6, ptr %4, align 4
  %32 = call noundef nonnull align 8 dereferenceable(48) ptr @_ZN4llvm11raw_ostream5writeEPKcm(ptr noundef nonnull align 8 dereferenceable(48) %29, ptr noundef nonnull %4, i64 noundef 4) #9
  call void @llvm.lifetime.end.p0(i64 4, ptr nonnull %4)
  %33 = load ptr, ptr %8, align 8
  call void @llvm.lifetime.start.p0(i64 4, ptr nonnull %3)
  store i32 0, ptr %3, align 4
  %34 = call noundef nonnull align 8 dereferenceable(48) ptr @_ZN4llvm11raw_ostream5writeEPKcm(ptr noundef nonnull align 8 dereferenceable(48) %33, ptr noundef nonnull %3, i64 noundef 4) #9
  call void @llvm.lifetime.end.p0(i64 4, ptr nonnull %3)
  ret void
}